target datalayout = "e-m:e-p270:32:32-p271:32:32-p272:64:64-i64:64-i128:128-f80:128-n8:16:32:64-S128"
target triple = "x86_64-pc-linux-gnu"

@.str = private unnamed_addr constant [15 x i8] c"stream factory\00", align 1
@le_protocols = internal global i32 0, align 4
@.str.11 = private unnamed_addr constant [16 x i8] c"STREAM_USE_PATH\00", align 1
@.str.12 = private unnamed_addr constant [18 x i8] c"STREAM_IGNORE_URL\00", align 1
@.str.13 = private unnamed_addr constant [21 x i8] c"STREAM_REPORT_ERRORS\00", align 1
@.str.14 = private unnamed_addr constant [17 x i8] c"STREAM_MUST_SEEK\00", align 1
@.str.15 = private unnamed_addr constant [21 x i8] c"STREAM_URL_STAT_LINK\00", align 1
@.str.16 = private unnamed_addr constant [22 x i8] c"STREAM_URL_STAT_QUIET\00", align 1
@.str.17 = private unnamed_addr constant [23 x i8] c"STREAM_MKDIR_RECURSIVE\00", align 1
@.str.18 = private unnamed_addr constant [14 x i8] c"STREAM_IS_URL\00", align 1
@.str.19 = private unnamed_addr constant [23 x i8] c"STREAM_OPTION_BLOCKING\00", align 1
@.str.20 = private unnamed_addr constant [27 x i8] c"STREAM_OPTION_READ_TIMEOUT\00", align 1
@.str.21 = private unnamed_addr constant [26 x i8] c"STREAM_OPTION_READ_BUFFER\00", align 1
@.str.22 = private unnamed_addr constant [27 x i8] c"STREAM_OPTION_WRITE_BUFFER\00", align 1
@.str.23 = private unnamed_addr constant [19 x i8] c"STREAM_BUFFER_NONE\00", align 1
@.str.24 = private unnamed_addr constant [19 x i8] c"STREAM_BUFFER_LINE\00", align 1
@.str.25 = private unnamed_addr constant [19 x i8] c"STREAM_BUFFER_FULL\00", align 1
@.str.26 = private unnamed_addr constant [22 x i8] c"STREAM_CAST_AS_STREAM\00", align 1
@.str.27 = private unnamed_addr constant [23 x i8] c"STREAM_CAST_FOR_SELECT\00", align 1
@.str.28 = private unnamed_addr constant [18 x i8] c"STREAM_META_TOUCH\00", align 1
@.str.29 = private unnamed_addr constant [18 x i8] c"STREAM_META_OWNER\00", align 1
@.str.30 = private unnamed_addr constant [23 x i8] c"STREAM_META_OWNER_NAME\00", align 1
@.str.31 = private unnamed_addr constant [18 x i8] c"STREAM_META_GROUP\00", align 1
@.str.32 = private unnamed_addr constant [23 x i8] c"STREAM_META_GROUP_NAME\00", align 1
@.str.33 = private unnamed_addr constant [19 x i8] c"STREAM_META_ACCESS\00", align 1

; Function Attrs: nounwind uwtable
define internal void @register_userspace_symbols(i32 noundef %0) #0 {
  %2 = alloca i32, align 4
  store i32 %0, ptr %2, align 4
  %3 = load i32, ptr %2, align 4
  call void @zend_register_long_constant(ptr noundef @.str.11, i64 noundef 15, i64 noundef 1, i32 noundef 1, i32 noundef %3)
  %4 = load i32, ptr %2, align 4
  call void @zend_register_long_constant(ptr noundef @.str.12, i64 noundef 17, i64 noundef 2, i32 noundef 1, i32 noundef %4)
  %5 = load i32, ptr %2, align 4
  call void @zend_register_long_constant(ptr noundef @.str.13, i64 noundef 20, i64 noundef 8, i32 noundef 1, i32 noundef %5)
  %6 = load i32, ptr %2, align 4
  call void @zend_register_long_constant(ptr noundef @.str.14, i64 noundef 16, i64 noundef 16, i32 noundef 1, i32 noundef %6)
  %7 = load i32, ptr %2, align 4
  call void @zend_register_long_constant(ptr noundef @.str.15, i64 noundef 20, i64 noundef 1, i32 noundef 1, i32 noundef %7)
  %8 = load i32, ptr %2, align 4
  call void @zend_register_long_constant(ptr noundef @.str.16, i64 noundef 21, i64 noundef 2, i32 noundef 1, i32 noundef %8)
  %9 = load i32, ptr %2, align 4
  call void @zend_register_long_constant(ptr noundef @.str.17, i64 noundef 22, i64 noundef 1, i32 noundef 1, i32 noundef %9)
  %10 = load i32, ptr %2, align 4
  call void @zend_register_long_constant(ptr noundef @.str.18, i64 noundef 13, i64 noundef 1, i32 noundef 1, i32 noundef %10)
  %11 = load i32, ptr %2, align 4
  call void @zend_register_long_constant(ptr noundef @.str.19, i64 noundef 22, i64 noundef 1, i32 noundef 1, i32 noundef %11)
  %12 = load i32, ptr %2, align 4
  call void @zend_register_long_constant(ptr noundef @.str.20, i64 noundef 26, i64 noundef 4, i32 noundef 1, i32 noundef %12)
  %13 = load i32, ptr %2, align 4
  call void @zend_register_long_constant(ptr noundef @.str.21, i64 noundef 25, i64 noundef 2, i32 noundef 1, i32 noundef %13)
  %14 = load i32, ptr %2, align 4
  call void @zend_register_long_constant(ptr noundef @.str.22, i64 noundef 26, i64 noundef 3, i32 noundef 1, i32 noundef %14)
  %15 = load i32, ptr %2, align 4
  call void @zend_register_long_constant(ptr noundef @.str.23, i64 noundef 18, i64 noundef 0, i32 noundef 1, i32 noundef %15)
  %16 = load i32, ptr %2, align 4
  call void @zend_register_long_constant(ptr noundef @.str.24, i64 noundef 18, i64 noundef 1, i32 noundef 1, i32 noundef %16)
  %17 = load i32, ptr %2, align 4
  call void @zend_register_long_constant(ptr noundef @.str.25, i64 noundef 18, i64 noundef 2, i32 noundef 1, i32 noundef %17)
  %18 = load i32, ptr %2, align 4
  call void @zend_register_long_constant(ptr noundef @.str.26, i64 noundef 21, i64 noundef 0, i32 noundef 1, i32 noundef %18)
  %19 = load i32, ptr %2, align 4
  call void @zend_register_long_constant(ptr noundef @.str.27, i64 noundef 22, i64 noundef 3, i32 noundef 1, i32 noundef %19)
  %20 = load i32, ptr %2, align 4
  call void @zend_register_long_constant(ptr noundef @.str.28, i64 noundef 17, i64 noundef 1, i32 noundef 1, i32 noundef %20)
  %21 = load i32, ptr %2, align 4
  call void @zend_register_long_constant(ptr noundef @.str.29, i64 noundef 17, i64 noundef 3, i32 noundef 1, i32 noundef %21)
  %22 = load i32, ptr %2, align 4
  call void @zend_register_long_constant(ptr noundef @.str.30, i64 noundef 22, i64 noundef 2, i32 noundef 1, i32 noundef %22)
  %23 = load i32, ptr %2, align 4
  call void @zend_register_long_constant(ptr noundef @.str.31, i64 noundef 17, i64 noundef 5, i32 noundef 1, i32 noundef %23)
  %24 = load i32, ptr %2, align 4
  call void @zend_register_long_constant(ptr noundef @.str.32, i64 noundef 22, i64 noundef 4, i32 noundef 1, i32 noundef %24)
  %25 = load i32, ptr %2, align 4
  call void @zend_register_long_constant(ptr noundef @.str.33, i64 noundef 18, i64 noundef 6, i32 noundef 1, i32 noundef %25)
  ret void
}

; Function Attrs: nounwind uwtable
define hidden i32 @zm_startup_user_streams(i32 noundef %0, i32 noundef %1) #0 {
  %3 = alloca i32, align 4
  %4 = alloca i32, align 4
  %5 = alloca i32, align 4
  store i32 %0, ptr %4, align 4
  store i32 %1, ptr %5, align 4
  %6 = call i32 @zend_register_list_destructors_ex(ptr noundef @stream_wrapper_dtor, ptr noundef null, ptr noundef @.str, i32 noundef 0)
  store i32 %6, ptr @le_protocols, align 4
  %7 = load i32, ptr @le_protocols, align 4
  %8 = icmp eq i32 %7, -1
  br i1 %8, label %9, label %10

9:                                                ; preds = %2
  store i32 -1, ptr %3, align 4
  br label %12

10:                                               ; preds = %2
  %11 = load i32, ptr %5, align 4
  call void @register_userspace_symbols(i32 noundef %11)
  store i32 0, ptr %3, align 4
  br label %12

12:                                               ; preds = %10, %9
  %13 = load i32, ptr %3, align 4
  ret i32 %13
}