; Function Attrs: nounwind uwtable
define hidden noundef i32 @zm_startup_user_streams(i32 noundef %0, i32 noundef %1) local_unnamed_addr #0 {
  %3 = tail call i32 @zend_register_list_destructors_ex(ptr noundef nonnull @stream_wrapper_dtor, ptr noundef null, ptr noundef nonnull @.str, i32 noundef 0) #11
  store i32 %3, ptr @le_protocols, align 4
  %4 = icmp eq i32 %3, -1
  br i1 %4, label %6, label %5

5:                                                ; preds = %2
  tail call void @zend_register_long_constant(ptr noundef nonnull @.str.11, i64 noundef 15, i64 noundef 1, i32 noundef 1, i32 noundef %1) #11
  tail call void @zend_register_long_constant(ptr noundef nonnull @.str.12, i64 noundef 17, i64 noundef 2, i32 noundef 1, i32 noundef %1) #11
  tail call void @zend_register_long_constant(ptr noundef nonnull @.str.13, i64 noundef 20, i64 noundef 8, i32 noundef 1, i32 noundef %1) #11
  tail call void @zend_register_long_constant(ptr noundef nonnull @.str.14, i64 noundef 16, i64 noundef 16, i32 noundef 1, i32 noundef %1) #11
  tail call void @zend_register_long_constant(ptr noundef nonnull @.str.15, i64 noundef 20, i64 noundef 1, i32 noundef 1, i32 noundef %1) #11
  tail call void @zend_register_long_constant(ptr noundef nonnull @.str.16, i64 noundef 21, i64 noundef 2, i32 noundef 1, i32 noundef %1) #11
  tail call void @zend_register_long_constant(ptr noundef nonnull @.str.17, i64 noundef 22, i64 noundef 1, i32 noundef 1, i32 noundef %1) #11
  tail call void @zend_register_long_constant(ptr noundef nonnull @.str.18, i64 noundef 13, i64 noundef 1, i32 noundef 1, i32 noundef %1) #11
  tail call void @zend_register_long_constant(ptr noundef nonnull @.str.19, i64 noundef 22, i64 noundef 1, i32 noundef 1, i32 noundef %1) #11
  tail call void @zend_register_long_constant(ptr noundef nonnull @.str.20, i64 noundef 26, i64 noundef 4, i32 noundef 1, i32 noundef %1) #11
  tail call void @zend_register_long_constant(ptr noundef nonnull @.str.21, i64 noundef 25, i64 noundef 2, i32 noundef 1, i32 noundef %1) #11
  tail call void @zend_register_long_constant(ptr noundef nonnull @.str.22, i64 noundef 26, i64 noundef 3, i32 noundef 1, i32 noundef %1) #11
  tail call void @zend_register_long_constant(ptr noundef nonnull @.str.23, i64 noundef 18, i64 noundef 0, i32 noundef 1, i32 noundef %1) #11
  tail call void @zend_register_long_constant(ptr noundef nonnull @.str.24, i64 noundef 18, i64 noundef 1, i32 noundef 1, i32 noundef %1) #11
  tail call void @zend_register_long_constant(ptr noundef nonnull @.str.25, i64 noundef 18, i64 noundef 2, i32 noundef 1, i32 noundef %1) #11
  tail call void @zend_register_long_constant(ptr noundef nonnull @.str.26, i64 noundef 21, i64 noundef 0, i32 noundef 1, i32 noundef %1) #11
  tail call void @zend_register_long_constant(ptr noundef nonnull @.str.27, i64 noundef 22, i64 noundef 3, i32 noundef 1, i32 noundef %1) #11
  tail call void @zend_register_long_constant(ptr noundef nonnull @.str.28, i64 noundef 17, i64 noundef 1, i32 noundef 1, i32 noundef %1) #11
  tail call void @zend_register_long_constant(ptr noundef nonnull @.str.29, i64 noundef 17, i64 noundef 3, i32 noundef 1, i32 noundef %1) #11
  tail call void @zend_register_long_constant(ptr noundef nonnull @.str.30, i64 noundef 22, i64 noundef 2, i32 noundef 1, i32 noundef %1) #11
  tail call void @zend_register_long_constant(ptr noundef nonnull @.str.31, i64 noundef 17, i64 noundef 5, i32 noundef 1, i32 noundef %1) #11
  tail call void @zend_register_long_constant(ptr noundef nonnull @.str.32, i64 noundef 22, i64 noundef 4, i32 noundef 1, i32 noundef %1) #11
  tail call void @zend_register_long_constant(ptr noundef nonnull @.str.33, i64 noundef 18, i64 noundef 6, i32 noundef 1, i32 noundef %1) #11
  br label %6

6:                                                ; preds = %2, %5
  %.0 = phi i32 [ 0, %5 ], [ -1, %2 ]
  ret i32 %.0
}